(dp0
S'hrah'
p1
(dp2
S'http://118.190.20.36:80/Awebsite/Index.aspx'
p3
c__builtin__
set
p4
((lp5
S'/Awebsite/CollegeAll.aspx'
p6
aS'/Awebsite/NewList.aspx?t=66'
p7
aS'style/base.css'
p8
aS'style/js/jquery-1.7.1.min.js'
p9
aS'NewShow.aspx?id=6965&t=34'
p10
aS'images/news/2017092801.jpg'
p11
aS'images/news/20121212.JPG'
p12
aS'/Awebsite/NewList.aspx?t=35'
p13
aS'http://www.pkufe.com.cn/art.jhtml'
p14
aS'images/news/2016061601.jpg'
p15
aS'images/carousel/2.png'
p16
aS'images/carousel/2015091703.JPG'
p17
aS'images/carousel/2015091702.JPG'
p18
aS'http://www.pfc.edu.cn:8080/zhaosheng/gzzz/637.htm'
p19
aS'NewShow.aspx?id=6945&t=34'
p20
aS'images/carousel/12.JPG'
p21
aS'NewShow.aspx?id=6998&t=34'
p22
aS'/Awebsite/NewAbout.aspx?id=719'
p23
aS'NewShow.aspx?id=6997&t=34'
p24
aS'NewShow.aspx?id=6960&t=34'
p25
aS'images/news/2015041505.jpg'
p26
aS'../App_Themes/BlueTheme/Default.css'
p27
aS'/Awebsite/NewShow.aspx?id=6754&t=34'
p28
aS'http://www.pkufe.com.cn/train.jhtml'
p29
aS'images/carousel/10.png'
p30
aS'http://www.pkufe.com.cn/edu.jhtml'
p31
aS'/Awebsite/NewAbout.aspx?id=1909'
p32
aS'images/carousel/5.png'
p33
aS'/Awebsite/NewShow.aspx?id=6640&t=34'
p34
aS'/Awebsite/CollegeShow.aspx?id=3829'
p35
aS'/PfcStuWorkingMIS/Diploma/search.aspx'
p36
aS'http://www.pfc.edu.cn:8080/zhaosheng/gzzz/668.htm'
p37
aS'/Awebsite/NewShow.aspx?id=6901&t=34'
p38
aS'/Awebsite/NewPolicy.aspx'
p39
aS'images/carousel/2013090901=.jpg'
p40
aS'NewShow.aspx?id=6946&t=34'
p41
aS'http://www.pkufe.com.cn'
p42
aS'NewShow.aspx?id=6886&t=66'
p43
aS'http://www.pkufe.com.cn/enterprise.jhtml'
p44
aS'/Awebsite/NewNews.aspx'
p45
aS'NewShow.aspx?id=6927&t=34'
p46
aS'http://it.pfc.cn:8090'
p47
aS'images/carousel/2013090908.jpg'
p48
aS'NewShow.aspx?id=7006&t=66'
p49
aS'style/img/index_sina_ico.png'
p50
aS'/Awebsite/CollegeShow.aspx?id=5522'
p51
aS'http://e.weibo.com/bjpfc?ref=http%3A%2F%2Fhao.360.cn%2Ftiyan.html'
p52
aS'NewShow.aspx?id=6906&t=66'
p53
aS'https://mail.mxhichina.com/alimail'
p54
aS'http://www.pfc.edu.cn:8080/zhaosheng/ksgz/665.htm'
p55
aS'http://www.pkufe.com.cn/pkurgep.jhtml'
p56
aS'http://www.pfc.edu.cn:8080/zhaosheng'
p57
aS'images/carousel/2015091705.JPG'
p58
aS'/Awebsite/NewMedia.aspx'
p59
aS'images/news/2017060803.jpg'
p60
aS'images/carousel/6.png'
p61
aS'/Awebsite/Index.aspx'
p62
aS'style/slider.css'
p63
aS'/Awebsite/NewShow.aspx?id=6637&t=34'
p64
aS'NewShow.aspx?id=6966&t=34'
p65
aS'/Awebsite/NewShow.aspx?id=6862&t=34'
p66
aS'images/news/2016112201.jpg'
p67
aS'images/carousel/4.png'
p68
aS'http://www.pfc.edu.cn:8080/zhaosheng/'
p69
aS'/Awebsite/NewAbout.aspx?id=722'
p70
aS'images/news/01XIAO.jpg'
p71
aS'/Awebsite/NewShow.aspx?id=3889&t=34'
p72
aS'/Awebsite/CollegeCalendar.aspx?id=5623'
p73
aS'images/carousel/2015091704.JPG'
p74
aS'/Awebsite/NewAbout.aspx?id=6740'
p75
aS'http://www.bjedu.gov.cn/'
p76
aS'images/carousel/1.png'
p77
aS'/Awebsite/NewAbout.aspx?id=2654'
p78
aS'/Awebsite/NewShow.aspx?id=6510&t=34'
p79
aS'style/js/slider-sohu-tao.js'
p80
aS'/Awebsite/NewStu.aspx'
p81
aS'style/js/common.js'
p82
aS'NewShow.aspx?id=6943&t=34'
p83
aS'/Awebsite/CollegeCalendar.aspx?id=5010'
p84
aS'images/carousel/2015091707.JPG'
p85
aS'images/carousel/2015091706.JPG'
p86
aS'/Awebsite/CollegeShow.aspx?id=1650'
p87
aS'/Awebsite/CollegeShow.aspx?id=6795'
p88
aS'/Awebsite/NewList.aspx?t=34'
p89
aS'NewShow.aspx?id=6910&t=34'
p90
aS'NewShow.aspx?id=6941&t=34'
p91
aS'http://www.miitbeian.gov.cn'
p92
aS'http://www.pkurg.com/'
p93
aS'http://file.pfc.cn:8090/'
p94
aS'style/img/weixin.jpg'
p95
aS'http://www.bjedu.gov.cn/xxgk/jgszyzn/bjswjygwjgszjzn/'
p96
aS'http://www.pku.edu.cn/'
p97
aS'/Awebsite/CollegeShow.aspx?id=2254'
p98
aS'/Awebsite/CollegeShow.aspx?id=2256'
p99
aS'/Awebsite/CollegeShow.aspx?id=2257'
p100
aS'/Awebsite/CollegeShow.aspx?id=2253'
p101
aS'images/news/2016052310000.jpg'
p102
aS'javascript:void(0);'
p103
aS'NewShow.aspx?id=6959&t=34'
p104
aS'images/carousel/2013090903.jpg'
p105
aS'http://www.founder.com/'
p106
aS'http://www.pkufe.com.cn/adviser.jhtml'
p107
aS'style/common.css'
p108
aS'http://www.pkufe.com.cn/tech.jhtml'
p109
aS'/Awebsite/NewCooperation.aspx'
p110
aS'http://60.10.60.10:8090/'
p111
aS'images/carousel/11.JPG'
p112
aS'/Awebsite/NewWork.aspx'
p113
aS'/Awebsite/NewShow.aspx?id=6910&t=34'
p114
aS'http://oa.pfc.cn:8090'
p115
aS'images/news/2016031808.jpg'
p116
aS'/Awebsite/CollegeTraining.aspx'
p117
aS'/Awebsite/CollegeCalendar.aspx?id=5187'
p118
aS'images/carousel/2015091701.JPG'
p119
aS'images/carousel/2013090901.jpg'
p120
aS'images/news/2017090501.jpg'
p121
aS'style/img/spar.png'
p122
aS'style/img/menu_arrow.png'
p123
aS'http://www.pfc.edu.cn:8080/zhaosheng/gzzz/667.htm'
p124
aS'style/img/\xe5\xbe\xae\xe5\x8d\x9a\xe5\x9b\xbe\xe6\xa0\x87\xe5\xb0\x8f.jpg'
p125
aS'/Awebsite/NewShow.aspx?id=6000&t=34'
p126
aS'/Awebsite/NewAbout.aspx?id=721'
p127
aS'style/js/yy-carousel.js'
p128
aS'/Awebsite/NewAbout.aspx?id=723'
p129
aS'NewShow.aspx?id=6885&t=66'
p130
aS'/Awebsite/CollegeCalendar.aspx?id=4956'
p131
atp132
Rp133
ssS'GetLog'
p134
(lp135
(I01
S'http://118.190.20.36:80/Awebsite/Index.aspx'
p136
I200
S'text/html'
p137
tp138
asS'refresh'
p139
(dp140
s.